; Function Attrs: mustprogress uwtable
define void @_Z20grpc_set_socket_dscpii(ptr noalias nocapture writeonly sret(%"class.absl::lts_20230802::Status") align 8 %agg.result, i32 noundef %fd, i32 noundef %dscp) local_unnamed_addr #3 personality ptr @__gxx_personality_v0 {
entry:
  %value = alloca i32, align 4
  %optval = alloca i32, align 4
  %optlen = alloca i32, align 4
  %agg.tmp = alloca %"class.absl::lts_20230802::Status", align 8
  %ref.tmp = alloca %"class.grpc_core::DebugLocation", align 1
  %agg.tmp17 = alloca %"class.absl::lts_20230802::Status", align 8
  %ref.tmp18 = alloca %"class.grpc_core::DebugLocation", align 1
  %cmp = icmp eq i32 %dscp, -1
  br i1 %cmp, label %return, label %if.end

if.end:                                           ; preds = %entry
  %shl = shl i32 %dscp, 2
  store i32 %shl, ptr %value, align 4
  store i32 4, ptr %optlen, align 4
  %call = call i32 @getsockopt(i32 noundef %fd, i32 noundef 0, i32 noundef 1, ptr noundef nonnull %optval, ptr noundef nonnull %optlen) #16
  %cmp1 = icmp eq i32 %call, 0
  br i1 %cmp1, label %if.then2, label %if.end8

if.then2:                                         ; preds = %if.end
  %0 = load i32, ptr %optval, align 4
  %and = and i32 %0, 3
  %or = or disjoint i32 %shl, %and
  store i32 %or, ptr %value, align 4
  %call3 = call i32 @setsockopt(i32 noundef %fd, i32 noundef 0, i32 noundef 1, ptr noundef nonnull %value, i32 noundef 4) #16
  %cmp4.not = icmp eq i32 %call3, 0
  br i1 %cmp4.not, label %if.end8, label %if.then5

if.then5:                                         ; preds = %if.then2
  %call6 = tail call ptr @__errno_location() #17
  %1 = load i32, ptr %call6, align 4
  call void @_Z13grpc_os_errorRKN9grpc_core13DebugLocationEiPKc(ptr nonnull sret(%"class.absl::lts_20230802::Status") align 8 %agg.tmp, ptr noundef nonnull align 1 dereferenceable(1) %ref.tmp, i32 noundef %1, ptr noundef nonnull @.str.17)
  %2 = load i64, ptr %agg.tmp, align 8, !noalias !63
  %cmp.i.i = icmp eq i64 %2, 0
  br i1 %cmp.i.i, label %if.then.i, label %return

if.then.i:                                        ; preds = %if.then5
  invoke void @gpr_assertion_failed(ptr noundef nonnull @.str.29, i32 noundef 78, ptr noundef nonnull @.str.30) #18
          to label %.noexc unwind label %lpad

.noexc:                                           ; preds = %if.then.i
  unreachable

lpad:                                             ; preds = %if.then.i
  %3 = landingpad { ptr, i32 }
          cleanup
  br label %eh.resume

if.end8:                                          ; preds = %if.then2, %if.end
  %call9 = call i32 @getsockopt(i32 noundef %fd, i32 noundef 41, i32 noundef 67, ptr noundef nonnull %optval, ptr noundef nonnull %optlen) #16
  %cmp10 = icmp eq i32 %call9, 0
  br i1 %cmp10, label %if.then11, label %return

if.then11:                                        ; preds = %if.end8
  %4 = load i32, ptr %optval, align 4
  %and12 = and i32 %4, 3
  %5 = load i32, ptr %value, align 4
  %or13 = or i32 %5, %and12
  store i32 %or13, ptr %value, align 4
  %call14 = call i32 @setsockopt(i32 noundef %fd, i32 noundef 41, i32 noundef 67, ptr noundef nonnull %value, i32 noundef 4) #16
  %cmp15.not = icmp eq i32 %call14, 0
  br i1 %cmp15.not, label %return, label %if.then16

if.then16:                                        ; preds = %if.then11
  %call19 = tail call ptr @__errno_location() #17
  %6 = load i32, ptr %call19, align 4
  call void @_Z13grpc_os_errorRKN9grpc_core13DebugLocationEiPKc(ptr nonnull sret(%"class.absl::lts_20230802::Status") align 8 %agg.tmp17, ptr noundef nonnull align 1 dereferenceable(1) %ref.tmp18, i32 noundef %6, ptr noundef nonnull @.str.18)
  %7 = load i64, ptr %agg.tmp17, align 8, !noalias !66
  %cmp.i.i6 = icmp eq i64 %7, 0
  br i1 %cmp.i.i6, label %if.then.i7, label %return

if.then.i7:                                       ; preds = %if.then16
  invoke void @gpr_assertion_failed(ptr noundef nonnull @.str.29, i32 noundef 78, ptr noundef nonnull @.str.30) #18
          to label %.noexc8 unwind label %lpad20

.noexc8:                                          ; preds = %if.then.i7
  unreachable

lpad20:                                           ; preds = %if.then.i7
  %8 = landingpad { ptr, i32 }
          cleanup
  br label %eh.resume

return:                                           ; preds = %if.end8, %if.then11, %if.then16, %if.then5, %entry
  %.sink = phi i64 [ 0, %entry ], [ %2, %if.then5 ], [ %7, %if.then16 ], [ 0, %if.then11 ], [ 0, %if.end8 ]
  store i64 %.sink, ptr %agg.result, align 8
  ret void

eh.resume:                                        ; preds = %lpad20, %lpad
  %agg.tmp17.sink = phi ptr [ %agg.tmp17, %lpad20 ], [ %agg.tmp, %lpad ]
  %.pn = phi { ptr, i32 } [ %8, %lpad20 ], [ %3, %lpad ]
  call void @_ZN4absl12lts_202308026StatusD2Ev(ptr noundef nonnull align 8 dereferenceable(8) %agg.tmp17.sink) #16
  resume { ptr, i32 } %.pn
}